target datalayout = "e-m:e-p270:32:32-p271:32:32-p272:64:64-i64:64-i128:128-f80:128-n8:16:32:64-S128"
target triple = "x86_64-pc-linux-gnu"

%struct.ossl_param_st = type { ptr, i32, ptr, i64, i64 }
%struct.siv128_context = type { %union.siv_block_u, %union.siv_block_u, ptr, ptr, ptr, i32, i32 }
%union.siv_block_u = type { [2 x i64] }

@ossl_siv128_init.zero = internal constant [16 x i8] zeroinitializer, align 16
@.str.1 = private unnamed_addr constant [7 x i8] c"cipher\00", align 1
@.str.2 = private unnamed_addr constant [4 x i8] c"key\00", align 1
@.str.3 = private unnamed_addr constant [5 x i8] c"CMAC\00", align 1

; Function Attrs: nounwind uwtable
define i32 @ossl_siv128_init(ptr noundef %0, ptr noundef %1, i32 noundef %2, ptr noundef %3, ptr noundef %4, ptr noundef %5, ptr noundef %6) #0 {
  %8 = alloca i32, align 4
  %9 = alloca ptr, align 8
  %10 = alloca ptr, align 8
  %11 = alloca i32, align 4
  %12 = alloca ptr, align 8
  %13 = alloca ptr, align 8
  %14 = alloca ptr, align 8
  %15 = alloca ptr, align 8
  %16 = alloca i64, align 8
  %17 = alloca ptr, align 8
  %18 = alloca [3 x %struct.ossl_param_st], align 16
  %19 = alloca ptr, align 8
  %20 = alloca i32, align 4
  %21 = alloca %struct.ossl_param_st, align 8
  %22 = alloca %struct.ossl_param_st, align 8
  %23 = alloca %struct.ossl_param_st, align 8
  store ptr %0, ptr %9, align 8, !tbaa !14
  store ptr %1, ptr %10, align 8, !tbaa !3
  store i32 %2, ptr %11, align 4, !tbaa !8
  store ptr %3, ptr %12, align 8, !tbaa !10
  store ptr %4, ptr %13, align 8, !tbaa !10
  store ptr %5, ptr %14, align 8, !tbaa !12
  store ptr %6, ptr %15, align 8, !tbaa !3
  call void @llvm.lifetime.start.p0(i64 8, ptr %16) #6
  store i64 16, ptr %16, align 8, !tbaa !16
  call void @llvm.lifetime.start.p0(i64 8, ptr %17) #6
  store ptr null, ptr %17, align 8, !tbaa !18
  call void @llvm.lifetime.start.p0(i64 120, ptr %18) #6
  call void @llvm.lifetime.start.p0(i64 8, ptr %19) #6
  %24 = load ptr, ptr %9, align 8, !tbaa !14
  %25 = icmp eq ptr %24, null
  br i1 %25, label %26, label %27

26:                                               ; preds = %7
  store i32 0, ptr %8, align 4
  store i32 1, ptr %20, align 4
  br label %135

27:                                               ; preds = %7
  %28 = load ptr, ptr %9, align 8, !tbaa !14
  %29 = getelementptr inbounds nuw %struct.siv128_context, ptr %28, i32 0, i32 0
  call void @llvm.memset.p0.i64(ptr align 8 %29, i8 0, i64 16, i1 false)
  %30 = load ptr, ptr %9, align 8, !tbaa !14
  %31 = getelementptr inbounds nuw %struct.siv128_context, ptr %30, i32 0, i32 2
  %32 = load ptr, ptr %31, align 8, !tbaa !20
  call void @EVP_CIPHER_CTX_free(ptr noundef %32)
  %33 = load ptr, ptr %9, align 8, !tbaa !14
  %34 = getelementptr inbounds nuw %struct.siv128_context, ptr %33, i32 0, i32 4
  %35 = load ptr, ptr %34, align 8, !tbaa !24
  call void @EVP_MAC_CTX_free(ptr noundef %35)
  %36 = load ptr, ptr %9, align 8, !tbaa !14
  %37 = getelementptr inbounds nuw %struct.siv128_context, ptr %36, i32 0, i32 3
  %38 = load ptr, ptr %37, align 8, !tbaa !25
  call void @EVP_MAC_free(ptr noundef %38)
  %39 = load ptr, ptr %9, align 8, !tbaa !14
  %40 = getelementptr inbounds nuw %struct.siv128_context, ptr %39, i32 0, i32 3
  store ptr null, ptr %40, align 8, !tbaa !25
  %41 = load ptr, ptr %9, align 8, !tbaa !14
  %42 = getelementptr inbounds nuw %struct.siv128_context, ptr %41, i32 0, i32 2
  store ptr null, ptr %42, align 8, !tbaa !20
  %43 = load ptr, ptr %9, align 8, !tbaa !14
  %44 = getelementptr inbounds nuw %struct.siv128_context, ptr %43, i32 0, i32 4
  store ptr null, ptr %44, align 8, !tbaa !24
  %45 = load ptr, ptr %10, align 8, !tbaa !3
  %46 = icmp eq ptr %45, null
  br i1 %46, label %53, label %47

47:                                               ; preds = %27
  %48 = load ptr, ptr %12, align 8, !tbaa !10
  %49 = icmp eq ptr %48, null
  br i1 %49, label %53, label %50

50:                                               ; preds = %47
  %51 = load ptr, ptr %13, align 8, !tbaa !10
  %52 = icmp eq ptr %51, null
  br i1 %52, label %53, label %54

53:                                               ; preds = %50, %47, %27
  store i32 0, ptr %8, align 4
  store i32 1, ptr %20, align 4
  br label %135

54:                                               ; preds = %50
  %55 = load ptr, ptr %12, align 8, !tbaa !10
  %56 = call ptr @EVP_CIPHER_get0_name(ptr noundef %55)
  store ptr %56, ptr %19, align 8, !tbaa !3
  %57 = getelementptr inbounds [3 x %struct.ossl_param_st], ptr %18, i64 0, i64 0
  call void @llvm.lifetime.start.p0(i64 40, ptr %21) #6
  %58 = load ptr, ptr %19, align 8, !tbaa !3
  call void @OSSL_PARAM_construct_utf8_string(ptr dead_on_unwind writable sret(%struct.ossl_param_st) align 8 %21, ptr noundef @.str.1, ptr noundef %58, i64 noundef 0)
  call void @llvm.memcpy.p0.p0.i64(ptr align 16 %57, ptr align 8 %21, i64 40, i1 false), !tbaa.struct !26
  call void @llvm.lifetime.end.p0(i64 40, ptr %21) #6
  %59 = getelementptr inbounds [3 x %struct.ossl_param_st], ptr %18, i64 0, i64 1
  call void @llvm.lifetime.start.p0(i64 40, ptr %22) #6
  %60 = load ptr, ptr %10, align 8, !tbaa !3
  %61 = load i32, ptr %11, align 4, !tbaa !8
  %62 = sext i32 %61 to i64
  call void @OSSL_PARAM_construct_octet_string(ptr dead_on_unwind writable sret(%struct.ossl_param_st) align 8 %22, ptr noundef @.str.2, ptr noundef %60, i64 noundef %62)
  call void @llvm.memcpy.p0.p0.i64(ptr align 8 %59, ptr align 8 %22, i64 40, i1 false), !tbaa.struct !26
  call void @llvm.lifetime.end.p0(i64 40, ptr %22) #6
  %63 = getelementptr inbounds [3 x %struct.ossl_param_st], ptr %18, i64 0, i64 2
  call void @llvm.lifetime.start.p0(i64 40, ptr %23) #6
  call void @OSSL_PARAM_construct_end(ptr dead_on_unwind writable sret(%struct.ossl_param_st) align 8 %23)
  call void @llvm.memcpy.p0.p0.i64(ptr align 16 %63, ptr align 8 %23, i64 40, i1 false), !tbaa.struct !26
  call void @llvm.lifetime.end.p0(i64 40, ptr %23) #6
  %64 = call ptr @EVP_CIPHER_CTX_new()
  %65 = load ptr, ptr %9, align 8, !tbaa !14
  %66 = getelementptr inbounds nuw %struct.siv128_context, ptr %65, i32 0, i32 2
  store ptr %64, ptr %66, align 8, !tbaa !20
  %67 = icmp eq ptr %64, null
  br i1 %67, label %118, label %68

68:                                               ; preds = %54
  %69 = load ptr, ptr %14, align 8, !tbaa !12
  %70 = load ptr, ptr %15, align 8, !tbaa !3
  %71 = call ptr @EVP_MAC_fetch(ptr noundef %69, ptr noundef @.str.3, ptr noundef %70)
  %72 = load ptr, ptr %9, align 8, !tbaa !14
  %73 = getelementptr inbounds nuw %struct.siv128_context, ptr %72, i32 0, i32 3
  store ptr %71, ptr %73, align 8, !tbaa !25
  %74 = icmp eq ptr %71, null
  br i1 %74, label %118, label %75

75:                                               ; preds = %68
  %76 = load ptr, ptr %9, align 8, !tbaa !14
  %77 = getelementptr inbounds nuw %struct.siv128_context, ptr %76, i32 0, i32 3
  %78 = load ptr, ptr %77, align 8, !tbaa !25
  %79 = call ptr @EVP_MAC_CTX_new(ptr noundef %78)
  %80 = load ptr, ptr %9, align 8, !tbaa !14
  %81 = getelementptr inbounds nuw %struct.siv128_context, ptr %80, i32 0, i32 4
  store ptr %79, ptr %81, align 8, !tbaa !24
  %82 = icmp eq ptr %79, null
  br i1 %82, label %118, label %83

83:                                               ; preds = %75
  %84 = load ptr, ptr %9, align 8, !tbaa !14
  %85 = getelementptr inbounds nuw %struct.siv128_context, ptr %84, i32 0, i32 4
  %86 = load ptr, ptr %85, align 8, !tbaa !24
  %87 = getelementptr inbounds [3 x %struct.ossl_param_st], ptr %18, i64 0, i64 0
  %88 = call i32 @EVP_MAC_CTX_set_params(ptr noundef %86, ptr noundef %87)
  %89 = icmp ne i32 %88, 0
  br i1 %89, label %90, label %118

90:                                               ; preds = %83
  %91 = load ptr, ptr %9, align 8, !tbaa !14
  %92 = getelementptr inbounds nuw %struct.siv128_context, ptr %91, i32 0, i32 2
  %93 = load ptr, ptr %92, align 8, !tbaa !20
  %94 = load ptr, ptr %13, align 8, !tbaa !10
  %95 = load ptr, ptr %10, align 8, !tbaa !3
  %96 = load i32, ptr %11, align 4, !tbaa !8
  %97 = sext i32 %96 to i64
  %98 = getelementptr inbounds i8, ptr %95, i64 %97
  %99 = call i32 @EVP_EncryptInit_ex(ptr noundef %93, ptr noundef %94, ptr noundef null, ptr noundef %98, ptr noundef null)
  %100 = icmp ne i32 %99, 0
  br i1 %100, label %101, label %118

101:                                              ; preds = %90
  %102 = load ptr, ptr %9, align 8, !tbaa !14
  %103 = getelementptr inbounds nuw %struct.siv128_context, ptr %102, i32 0, i32 4
  %104 = load ptr, ptr %103, align 8, !tbaa !24
  %105 = call ptr @EVP_MAC_CTX_dup(ptr noundef %104)
  store ptr %105, ptr %17, align 8, !tbaa !18
  %106 = icmp eq ptr %105, null
  br i1 %106, label %118, label %107

107:                                              ; preds = %101
  %108 = load ptr, ptr %17, align 8, !tbaa !18
  %109 = call i32 @EVP_MAC_update(ptr noundef %108, ptr noundef @ossl_siv128_init.zero, i64 noundef 16)
  %110 = icmp ne i32 %109, 0
  br i1 %110, label %111, label %118

111:                                              ; preds = %107
  %112 = load ptr, ptr %17, align 8, !tbaa !18
  %113 = load ptr, ptr %9, align 8, !tbaa !14
  %114 = getelementptr inbounds nuw %struct.siv128_context, ptr %113, i32 0, i32 0
  %115 = getelementptr inbounds [16 x i8], ptr %114, i64 0, i64 0
  %116 = call i32 @EVP_MAC_final(ptr noundef %112, ptr noundef %115, ptr noundef %16, i64 noundef 16)
  %117 = icmp ne i32 %116, 0
  br i1 %117, label %129, label %118

118:                                              ; preds = %111, %107, %101, %90, %83, %75, %68, %54
  %119 = load ptr, ptr %9, align 8, !tbaa !14
  %120 = getelementptr inbounds nuw %struct.siv128_context, ptr %119, i32 0, i32 2
  %121 = load ptr, ptr %120, align 8, !tbaa !20
  call void @EVP_CIPHER_CTX_free(ptr noundef %121)
  %122 = load ptr, ptr %9, align 8, !tbaa !14
  %123 = getelementptr inbounds nuw %struct.siv128_context, ptr %122, i32 0, i32 4
  %124 = load ptr, ptr %123, align 8, !tbaa !24
  call void @EVP_MAC_CTX_free(ptr noundef %124)
  %125 = load ptr, ptr %17, align 8, !tbaa !18
  call void @EVP_MAC_CTX_free(ptr noundef %125)
  %126 = load ptr, ptr %9, align 8, !tbaa !14
  %127 = getelementptr inbounds nuw %struct.siv128_context, ptr %126, i32 0, i32 3
  %128 = load ptr, ptr %127, align 8, !tbaa !25
  call void @EVP_MAC_free(ptr noundef %128)
  store i32 0, ptr %8, align 4
  store i32 1, ptr %20, align 4
  br label %135

129:                                              ; preds = %111
  %130 = load ptr, ptr %17, align 8, !tbaa !18
  call void @EVP_MAC_CTX_free(ptr noundef %130)
  %131 = load ptr, ptr %9, align 8, !tbaa !14
  %132 = getelementptr inbounds nuw %struct.siv128_context, ptr %131, i32 0, i32 5
  store i32 -1, ptr %132, align 8, !tbaa !28
  %133 = load ptr, ptr %9, align 8, !tbaa !14
  %134 = getelementptr inbounds nuw %struct.siv128_context, ptr %133, i32 0, i32 6
  store i32 1, ptr %134, align 4, !tbaa !29
  store i32 1, ptr %8, align 4
  store i32 1, ptr %20, align 4
  br label %135

135:                                              ; preds = %129, %118, %53, %26
  call void @llvm.lifetime.end.p0(i64 8, ptr %19) #6
  call void @llvm.lifetime.end.p0(i64 120, ptr %18) #6
  call void @llvm.lifetime.end.p0(i64 8, ptr %17) #6
  call void @llvm.lifetime.end.p0(i64 8, ptr %16) #6
  %136 = load i32, ptr %8, align 4
  ret i32 %136
}