; Function Attrs: nounwind uwtable
define range(i32 0, 2) i32 @ossl_siv128_init(ptr noundef %0, ptr noundef %1, i32 noundef %2, ptr noundef %3, ptr noundef %4, ptr noundef %5, ptr noundef %6) local_unnamed_addr #0 {
  %8 = alloca i64, align 8
  %9 = alloca [3 x %struct.ossl_param_st], align 16
  %10 = alloca %struct.ossl_param_st, align 8
  %11 = alloca %struct.ossl_param_st, align 8
  call void @llvm.lifetime.start.p0(i64 8, ptr nonnull %8) #10
  store i64 16, ptr %8, align 8, !tbaa !3
  call void @llvm.lifetime.start.p0(i64 120, ptr nonnull %9) #10
  %12 = icmp eq ptr %0, null
  br i1 %12, label %57, label %13

13:                                               ; preds = %7
  tail call void @llvm.memset.p0.i64(ptr noundef nonnull align 8 dereferenceable(16) %0, i8 0, i64 16, i1 false)
  %14 = getelementptr inbounds nuw i8, ptr %0, i64 32
  %15 = load ptr, ptr %14, align 8, !tbaa !7
  tail call void @EVP_CIPHER_CTX_free(ptr noundef %15) #10
  %16 = getelementptr inbounds nuw i8, ptr %0, i64 48
  %17 = load ptr, ptr %16, align 8, !tbaa !14
  tail call void @EVP_MAC_CTX_free(ptr noundef %17) #10
  %18 = getelementptr inbounds nuw i8, ptr %0, i64 40
  %19 = load ptr, ptr %18, align 8, !tbaa !15
  tail call void @EVP_MAC_free(ptr noundef %19) #10
  %20 = icmp eq ptr %1, null
  %21 = icmp eq ptr %3, null
  %or.cond = or i1 %20, %21
  %22 = icmp eq ptr %4, null
  %or.cond3 = or i1 %or.cond, %22
  tail call void @llvm.memset.p0.i64(ptr noundef nonnull align 8 dereferenceable(24) %14, i8 0, i64 24, i1 false)
  br i1 %or.cond3, label %57, label %23

23:                                               ; preds = %13
  %24 = tail call ptr @EVP_CIPHER_get0_name(ptr noundef nonnull %3) #10
  call void @OSSL_PARAM_construct_utf8_string(ptr dead_on_unwind nonnull writable sret(%struct.ossl_param_st) align 8 %9, ptr noundef nonnull @.str.1, ptr noundef %24, i64 noundef 0) #10
  %25 = getelementptr inbounds nuw i8, ptr %9, i64 40
  call void @llvm.lifetime.start.p0(i64 40, ptr nonnull %10) #10
  %26 = sext i32 %2 to i64
  call void @OSSL_PARAM_construct_octet_string(ptr dead_on_unwind nonnull writable sret(%struct.ossl_param_st) align 8 %10, ptr noundef nonnull @.str.2, ptr noundef nonnull %1, i64 noundef %26) #10
  call void @llvm.memcpy.p0.p0.i64(ptr noundef nonnull align 8 dereferenceable(40) %25, ptr noundef nonnull align 8 dereferenceable(40) %10, i64 40, i1 false), !tbaa.struct !16
  call void @llvm.lifetime.end.p0(i64 40, ptr nonnull %10) #10
  %27 = getelementptr inbounds nuw i8, ptr %9, i64 80
  call void @llvm.lifetime.start.p0(i64 40, ptr nonnull %11) #10
  call void @OSSL_PARAM_construct_end(ptr dead_on_unwind nonnull writable sret(%struct.ossl_param_st) align 8 %11) #10
  call void @llvm.memcpy.p0.p0.i64(ptr noundef nonnull align 16 dereferenceable(40) %27, ptr noundef nonnull align 8 dereferenceable(40) %11, i64 40, i1 false), !tbaa.struct !16
  call void @llvm.lifetime.end.p0(i64 40, ptr nonnull %11) #10
  %28 = call ptr @EVP_CIPHER_CTX_new() #10
  store ptr %28, ptr %14, align 8, !tbaa !7
  %29 = icmp eq ptr %28, null
  br i1 %29, label %50, label %30

30:                                               ; preds = %23
  %31 = call ptr @EVP_MAC_fetch(ptr noundef %5, ptr noundef nonnull @.str.3, ptr noundef %6) #10
  store ptr %31, ptr %18, align 8, !tbaa !15
  %32 = icmp eq ptr %31, null
  br i1 %32, label %50, label %33

33:                                               ; preds = %30
  %34 = call ptr @EVP_MAC_CTX_new(ptr noundef nonnull %31) #10
  store ptr %34, ptr %16, align 8, !tbaa !14
  %35 = icmp eq ptr %34, null
  br i1 %35, label %50, label %36

36:                                               ; preds = %33
  %37 = call i32 @EVP_MAC_CTX_set_params(ptr noundef nonnull %34, ptr noundef nonnull %9) #10
  %.not = icmp eq i32 %37, 0
  br i1 %.not, label %50, label %38

38:                                               ; preds = %36
  %39 = load ptr, ptr %14, align 8, !tbaa !7
  %40 = getelementptr inbounds i8, ptr %1, i64 %26
  %41 = call i32 @EVP_EncryptInit_ex(ptr noundef %39, ptr noundef nonnull %4, ptr noundef null, ptr noundef nonnull %40, ptr noundef null) #10
  %.not48 = icmp eq i32 %41, 0
  br i1 %.not48, label %50, label %42

42:                                               ; preds = %38
  %43 = load ptr, ptr %16, align 8, !tbaa !14
  %44 = call ptr @EVP_MAC_CTX_dup(ptr noundef %43) #10
  %45 = icmp eq ptr %44, null
  br i1 %45, label %50, label %46

46:                                               ; preds = %42
  %47 = call i32 @EVP_MAC_update(ptr noundef nonnull %44, ptr noundef nonnull @ossl_siv128_init.zero, i64 noundef 16) #10
  %.not49 = icmp eq i32 %47, 0
  br i1 %.not49, label %50, label %48

48:                                               ; preds = %46
  %49 = call i32 @EVP_MAC_final(ptr noundef nonnull %44, ptr noundef nonnull %0, ptr noundef nonnull %8, i64 noundef 16) #10
  %.not50 = icmp eq i32 %49, 0
  br i1 %.not50, label %50, label %54

50:                                               ; preds = %48, %46, %42, %38, %36, %33, %30, %23
  %.040 = phi ptr [ null, %23 ], [ null, %30 ], [ null, %33 ], [ null, %42 ], [ %44, %48 ], [ %44, %46 ], [ null, %38 ], [ null, %36 ]
  %51 = load ptr, ptr %14, align 8, !tbaa !7
  call void @EVP_CIPHER_CTX_free(ptr noundef %51) #10
  %52 = load ptr, ptr %16, align 8, !tbaa !14
  call void @EVP_MAC_CTX_free(ptr noundef %52) #10
  call void @EVP_MAC_CTX_free(ptr noundef %.040) #10
  %53 = load ptr, ptr %18, align 8, !tbaa !15
  call void @EVP_MAC_free(ptr noundef %53) #10
  br label %57

54:                                               ; preds = %48
  call void @EVP_MAC_CTX_free(ptr noundef nonnull %44) #10
  %55 = getelementptr inbounds nuw i8, ptr %0, i64 56
  store i32 -1, ptr %55, align 8, !tbaa !21
  %56 = getelementptr inbounds nuw i8, ptr %0, i64 60
  store i32 1, ptr %56, align 4, !tbaa !22
  br label %57

57:                                               ; preds = %13, %7, %54, %50
  %.0 = phi i32 [ 0, %50 ], [ 1, %54 ], [ 0, %7 ], [ 0, %13 ]
  call void @llvm.lifetime.end.p0(i64 120, ptr nonnull %9) #10
  call void @llvm.lifetime.end.p0(i64 8, ptr nonnull %8) #10
  ret i32 %.0
}